	.file	"print.c"
	.section	.rodata
.LC0:
	.string	"%lld\n"
	.text
	.globl	print_int
	.type	print_int, @function
print_int:
.LFB0:
	.cfi_startproc
	pushq	%rbp
	.cfi_def_cfa_offset 16
	.cfi_offset 6, -16
	movq	%rsp, %rbp
	.cfi_def_cfa_register 6
	subq	$16, %rsp
	movq	%rdi, -8(%rbp)
	movq	-8(%rbp), %rax
	movq	%rax, %rsi
	movl	$.LC0, %edi
	movl	$0, %eax
	call	printf
	nop
	leave
	.cfi_def_cfa 7, 8
	ret
	.cfi_endproc
.LFE0:
	.size	print_int, .-print_int
	.section	.rodata
.LC1:
	.string	"%lf\n"
	.text
	.globl	print_float
	.type	print_float, @function
print_float:
.LFB1:
	.cfi_startproc
	pushq	%rbp
	.cfi_def_cfa_offset 16
	.cfi_offset 6, -16
	movq	%rsp, %rbp
	.cfi_def_cfa_register 6
	subq	$16, %rsp
	movsd	%xmm0, -8(%rbp)
	movq	-8(%rbp), %rax
	movq	%rax, -16(%rbp)
	movsd	-16(%rbp), %xmm0
	movl	$.LC1, %edi
	movl	$1, %eax
	call	printf
	nop
	leave
	.cfi_def_cfa 7, 8
	ret
	.cfi_endproc
.LFE1:
	.size	print_float, .-print_float
	.globl	print_str
	.type	print_str, @function
print_str:
.LFB2:
	.cfi_startproc
	pushq	%rbp
	.cfi_def_cfa_offset 16
	.cfi_offset 6, -16
	movq	%rsp, %rbp
	.cfi_def_cfa_register 6
	subq	$16, %rsp
	movq	%rdi, -8(%rbp)
	movq	-8(%rbp), %rax
	movq	%rax, %rdi
	call	puts
	nop
	leave
	.cfi_def_cfa 7, 8
	ret
	.cfi_endproc
.LFE2:
	.size	print_str, .-print_str
	.ident	"GCC: (Ubuntu 5.4.0-6ubuntu1~16.04.9) 5.4.0 20160609"
	.section	.note.GNU-stack,"",@progbits
